; Function Attrs: mustprogress nofree norecurse nosync nounwind willreturn memory(argmem: read) uwtable
define hidden noundef zeroext i1 @_ZNK2pb4card11is_watchingEN3sat7literalE(ptr noundef nonnull readonly align 8 captures(none) dereferenceable(64) %0, i32 %1) unnamed_addr #7 align 2 {
  %3 = getelementptr inbounds nuw i8, ptr %0, i64 60
  %4 = load i32, ptr %3, align 4, !tbaa !25
  %5 = add i32 %4, 1
  %6 = getelementptr inbounds nuw i8, ptr %0, i64 32
  %7 = load i32, ptr %6, align 8, !tbaa !20
  %.sroa.speculated = tail call i32 @llvm.umin.i32(i32 %7, i32 %5)
  %8 = getelementptr inbounds nuw i8, ptr %0, i64 64
  %.not12.not = icmp eq i32 %.sroa.speculated, 0
  br i1 %.not12.not, label %.critedge, label %.lr.ph.preheader

.lr.ph.preheader:                                 ; preds = %2
  %wide.trip.count = zext i32 %.sroa.speculated to i64
  br label %.lr.ph

.lr.ph:                                           ; preds = %.lr.ph, %.lr.ph.preheader
  %indvars.iv = phi i64 [ 0, %.lr.ph.preheader ], [ %indvars.iv.next, %.lr.ph ]
  %9 = getelementptr inbounds nuw [0 x %"class.sat::literal"], ptr %8, i64 0, i64 %indvars.iv
  %.sroa.0.0.copyload.i = load i32, ptr %9, align 4, !tbaa !9
  %10 = icmp eq i32 %.sroa.0.0.copyload.i, %1
  %indvars.iv.next = add nuw nsw i64 %indvars.iv, 1
  %exitcond.not = icmp eq i64 %indvars.iv.next, %wide.trip.count
  %or.cond = select i1 %10, i1 true, i1 %exitcond.not
  br i1 %or.cond, label %.critedge, label %.lr.ph, !llvm.loop !32

.critedge:                                        ; preds = %.lr.ph, %2
  %.not.lcssa = phi i1 [ false, %2 ], [ %10, %.lr.ph ]
  ret i1 %.not.lcssa
}